target datalayout = "e-m:e-p270:32:32-p271:32:32-p272:64:64-i64:64-i128:128-f80:128-n8:16:32:64-S128"
target triple = "x86_64-pc-linux-gnu"

%class.C2Access = type <{ ptr, i64, i8, [7 x i8], ptr, ptr, ptr, i8, [7 x i8] }>
%class.C2AccessValue = type { ptr, ptr }
%class.Type = type <{ ptr, ptr, i32, [4 x i8] }>

; Function Attrs: mustprogress nounwind uwtable
define linkonce_odr hidden noundef ptr @_ZNK4Type10isa_aryptrEv(ptr noundef nonnull align 8 dereferenceable(20) %0) #1 comdat align 2 {
  %2 = alloca ptr, align 8
  store ptr %0, ptr %2, align 8
  %3 = load ptr, ptr %2, align 8
  %4 = getelementptr inbounds %class.Type, ptr %3, i32 0, i32 2
  %5 = load i32, ptr %4, align 8
  %6 = icmp eq i32 %5, 22
  br i1 %6, label %7, label %8

7:                                                ; preds = %1
  br label %9

8:                                                ; preds = %1
  br label %9

9:                                                ; preds = %8, %7
  %10 = phi ptr [ %3, %7 ], [ null, %8 ]
  ret ptr %10
}

; Function Attrs: mustprogress nounwind uwtable
define linkonce_odr hidden noundef ptr @_ZNK16C2AccessValuePtr4typeEv(ptr noundef nonnull align 8 dereferenceable(16) %0) #1 comdat align 2 {
  %2 = alloca ptr, align 8
  store ptr %0, ptr %2, align 8
  %3 = load ptr, ptr %2, align 8
  %4 = getelementptr inbounds %class.C2AccessValue, ptr %3, i32 0, i32 1
  %5 = load ptr, ptr %4, align 8
  ret ptr %5
}

; Function Attrs: mustprogress nounwind uwtable
define hidden noundef zeroext i1 @_ZNK8C2Access16needs_cpu_membarEv(ptr noundef nonnull align 8 dereferenceable(49) %0) #1 align 2 {
  %2 = alloca i1, align 1
  %3 = alloca ptr, align 8
  %4 = alloca i8, align 1
  %5 = alloca i8, align 1
  %6 = alloca i8, align 1
  %7 = alloca i8, align 1
  %8 = alloca i8, align 1
  %9 = alloca i8, align 1
  %10 = alloca i8, align 1
  %11 = alloca i8, align 1
  %12 = alloca i8, align 1
  store ptr %0, ptr %3, align 8
  %13 = load ptr, ptr %3, align 8
  %14 = getelementptr inbounds %class.C2Access, ptr %13, i32 0, i32 1
  %15 = load i64, ptr %14, align 8
  %16 = and i64 %15, 2147483648
  %17 = icmp ne i64 %16, 0
  %18 = zext i1 %17 to i8
  store i8 %18, ptr %4, align 1
  %19 = getelementptr inbounds %class.C2Access, ptr %13, i32 0, i32 1
  %20 = load i64, ptr %19, align 8
  %21 = and i64 %20, 64
  %22 = icmp ne i64 %21, 0
  %23 = zext i1 %22 to i8
  store i8 %23, ptr %5, align 1
  %24 = getelementptr inbounds %class.C2Access, ptr %13, i32 0, i32 1
  %25 = load i64, ptr %24, align 8
  %26 = and i64 %25, 68719476736
  %27 = icmp ne i64 %26, 0
  %28 = zext i1 %27 to i8
  store i8 %28, ptr %6, align 1
  %29 = getelementptr inbounds %class.C2Access, ptr %13, i32 0, i32 1
  %30 = load i64, ptr %29, align 8
  %31 = and i64 %30, 262144
  %32 = icmp ne i64 %31, 0
  %33 = zext i1 %32 to i8
  store i8 %33, ptr %7, align 1
  %34 = getelementptr inbounds %class.C2Access, ptr %13, i32 0, i32 1
  %35 = load i64, ptr %34, align 8
  %36 = and i64 %35, 524288
  %37 = icmp ne i64 %36, 0
  %38 = zext i1 %37 to i8
  store i8 %38, ptr %8, align 1
  %39 = load i8, ptr %7, align 1
  %40 = trunc i8 %39 to i1
  br i1 %40, label %45, label %41

41:                                               ; preds = %1
  %42 = load i8, ptr %8, align 1
  %43 = trunc i8 %42 to i1
  %44 = xor i1 %43, true
  br label %45

45:                                               ; preds = %41, %1
  %46 = phi i1 [ false, %1 ], [ %44, %41 ]
  %47 = zext i1 %46 to i8
  store i8 %47, ptr %9, align 1
  %48 = getelementptr inbounds %class.C2Access, ptr %13, i32 0, i32 1
  %49 = load i64, ptr %48, align 8
  %50 = and i64 %49, 137438953472
  %51 = icmp ne i64 %50, 0
  %52 = zext i1 %51 to i8
  store i8 %52, ptr %10, align 1
  %53 = getelementptr inbounds %class.C2Access, ptr %13, i32 0, i32 1
  %54 = load i64, ptr %53, align 8
  %55 = and i64 %54, 274877906944
  %56 = icmp ne i64 %55, 0
  %57 = zext i1 %56 to i8
  store i8 %57, ptr %11, align 1
  %58 = load i8, ptr %11, align 1
  %59 = trunc i8 %58 to i1
  br i1 %59, label %60, label %63

60:                                               ; preds = %45
  %61 = load i8, ptr %10, align 1
  %62 = trunc i8 %61 to i1
  br label %63

63:                                               ; preds = %60, %45
  %64 = phi i1 [ false, %45 ], [ %62, %60 ]
  %65 = zext i1 %64 to i8
  store i8 %65, ptr %12, align 1
  %66 = load i8, ptr %12, align 1
  %67 = trunc i8 %66 to i1
  br i1 %67, label %68, label %69

68:                                               ; preds = %63
  store i1 true, ptr %2, align 1
  br label %91

69:                                               ; preds = %63
  %70 = load i8, ptr %6, align 1
  %71 = trunc i8 %70 to i1
  br i1 %71, label %72, label %89

72:                                               ; preds = %69
  %73 = load i8, ptr %9, align 1
  %74 = trunc i8 %73 to i1
  br i1 %74, label %87, label %75

75:                                               ; preds = %72
  %76 = load i8, ptr %5, align 1
  %77 = trunc i8 %76 to i1
  br i1 %77, label %78, label %87

78:                                               ; preds = %75
  %79 = load i8, ptr %4, align 1
  %80 = trunc i8 %79 to i1
  br i1 %80, label %81, label %88

81:                                               ; preds = %78
  %82 = getelementptr inbounds %class.C2Access, ptr %13, i32 0, i32 5
  %83 = load ptr, ptr %82, align 8
  %84 = call noundef ptr @_ZNK16C2AccessValuePtr4typeEv(ptr noundef nonnull align 8 dereferenceable(16) %83)
  %85 = call noundef ptr @_ZNK4Type10isa_aryptrEv(ptr noundef nonnull align 8 dereferenceable(20) %84)
  %86 = icmp ne ptr %85, null
  br i1 %86, label %88, label %87

87:                                               ; preds = %81, %75, %72
  store i1 true, ptr %2, align 1
  br label %91

88:                                               ; preds = %81, %78
  br label %90

89:                                               ; preds = %69
  br label %90

90:                                               ; preds = %89, %88
  store i1 false, ptr %2, align 1
  br label %91

91:                                               ; preds = %90, %87, %68
  %92 = load i1, ptr %2, align 1
  ret i1 %92
}