; Function Attrs: mustprogress nofree norecurse nosync nounwind willreturn memory(read, inaccessiblemem: none) uwtable
define hidden noundef zeroext i1 @_ZNK8C2Access16needs_cpu_membarEv(ptr nocapture noundef nonnull readonly align 8 dereferenceable(49) %0) local_unnamed_addr #1 align 2 {
  %2 = getelementptr inbounds i8, ptr %0, i64 8
  %3 = load i64, ptr %2, align 8
  %4 = and i64 %3, 2147483648
  %.not = icmp eq i64 %4, 0
  %5 = and i64 %3, 64
  %.not10 = icmp eq i64 %5, 0
  %6 = and i64 %3, 786432
  %7 = icmp eq i64 %6, 0
  %8 = and i64 %3, 412316860416
  %9 = icmp eq i64 %8, 412316860416
  br i1 %9, label %23, label %10

10:                                               ; preds = %1
  %11 = and i64 %3, 68719476736
  %.not11 = icmp eq i64 %11, 0
  br i1 %.not11, label %22, label %12

12:                                               ; preds = %10
  %brmerge = or i1 %7, %.not10
  br i1 %brmerge, label %23, label %13

13:                                               ; preds = %12
  br i1 %.not, label %22, label %14

14:                                               ; preds = %13
  %15 = getelementptr inbounds i8, ptr %0, i64 32
  %16 = load ptr, ptr %15, align 8
  %17 = getelementptr inbounds i8, ptr %16, i64 8
  %18 = load ptr, ptr %17, align 8
  %19 = getelementptr inbounds i8, ptr %18, i64 16
  %20 = load i32, ptr %19, align 8
  %21 = icmp ne i32 %20, 22
  %.not1415 = icmp eq ptr %18, null
  %.not14 = or i1 %.not1415, %21
  br i1 %.not14, label %23, label %22

22:                                               ; preds = %10, %13, %14
  br label %23

23:                                               ; preds = %14, %12, %1, %22
  %.0 = phi i1 [ false, %22 ], [ true, %1 ], [ true, %12 ], [ true, %14 ]
  ret i1 %.0
}